target datalayout = "e-m:e-p270:32:32-p271:32:32-p272:64:64-i64:64-i128:128-f80:128-n8:16:32:64-S128"
target triple = "x86_64-pc-linux-gnu"

%"class.Yosys::RTLIL::Const::const_iterator" = type { ptr, i64 }
%class.BigInteger = type { i32, %class.BigUnsigned }
%class.BigUnsigned = type { %class.NumberlikeArray }
%class.NumberlikeArray = type { i32, i32, ptr }

; Function Attrs: mustprogress nounwind uwtable
define linkonce_odr void @_ZN5Yosys5RTLIL5Const14const_iteratorC2ERKS1_m(ptr noundef nonnull align 8 dereferenceable(16) %0, ptr noundef nonnull align 8 dereferenceable(40) %1, i64 noundef %2) unnamed_addr #6 comdat align 2 {
  %4 = alloca ptr, align 8
  %5 = alloca ptr, align 8
  %6 = alloca i64, align 8
  store ptr %0, ptr %4, align 8, !tbaa !62
  store ptr %1, ptr %5, align 8, !tbaa !6
  store i64 %2, ptr %6, align 8, !tbaa !24
  %7 = load ptr, ptr %4, align 8
  %8 = getelementptr inbounds nuw %"class.Yosys::RTLIL::Const::const_iterator", ptr %7, i32 0, i32 0
  %9 = load ptr, ptr %5, align 8, !tbaa !6
  store ptr %9, ptr %8, align 8, !tbaa !6
  %10 = getelementptr inbounds nuw %"class.Yosys::RTLIL::Const::const_iterator", ptr %7, i32 0, i32 1
  %11 = load i64, ptr %6, align 8, !tbaa !24
  store i64 %11, ptr %10, align 8, !tbaa !66
  ret void
}

; Function Attrs: mustprogress nounwind uwtable
define linkonce_odr void @_ZN15NumberlikeArrayImEC2Ev(ptr noundef nonnull align 8 dereferenceable(16) %0) unnamed_addr #6 comdat align 2 {
  %2 = alloca ptr, align 8
  store ptr %0, ptr %2, align 8, !tbaa !101
  %3 = load ptr, ptr %2, align 8
  %4 = getelementptr inbounds nuw %class.NumberlikeArray, ptr %3, i32 0, i32 0
  store i32 0, ptr %4, align 8, !tbaa !104
  %5 = getelementptr inbounds nuw %class.NumberlikeArray, ptr %3, i32 0, i32 1
  store i32 0, ptr %5, align 4, !tbaa !105
  %6 = getelementptr inbounds nuw %class.NumberlikeArray, ptr %3, i32 0, i32 2
  store ptr null, ptr %6, align 8, !tbaa !103
  ret void
}

; Function Attrs: mustprogress nounwind uwtable
define linkonce_odr void @_ZN15NumberlikeArrayImED2Ev(ptr noundef nonnull align 8 dereferenceable(16) %0) unnamed_addr #6 comdat align 2 {
  %2 = alloca ptr, align 8
  store ptr %0, ptr %2, align 8, !tbaa !101
  %3 = load ptr, ptr %2, align 8
  %4 = getelementptr inbounds nuw %class.NumberlikeArray, ptr %3, i32 0, i32 2
  %5 = load ptr, ptr %4, align 8, !tbaa !103
  %6 = icmp eq ptr %5, null
  br i1 %6, label %8, label %7

7:                                                ; preds = %1
  call void @_ZdaPv(ptr noundef %5) #19
  br label %8

8:                                                ; preds = %7, %1
  ret void
}

; Function Attrs: inlinehint mustprogress uwtable
define linkonce_odr void @_ZN11BigUnsignedpLERKS_(ptr noundef nonnull align 8 dereferenceable(16) %0, ptr noundef nonnull align 8 dereferenceable(16) %1) #8 comdat align 2 {
  %3 = alloca ptr, align 8
  %4 = alloca ptr, align 8
  store ptr %0, ptr %3, align 8, !tbaa !99
  store ptr %1, ptr %4, align 8, !tbaa !99
  %5 = load ptr, ptr %3, align 8
  %6 = load ptr, ptr %4, align 8, !tbaa !99
  call void @_ZN11BigUnsigned3addERKS_S1_(ptr noundef nonnull align 8 dereferenceable(16) %5, ptr noundef nonnull align 8 dereferenceable(16) %5, ptr noundef nonnull align 8 dereferenceable(16) %6)
  ret void
}

; Function Attrs: mustprogress uwtable
define linkonce_odr noundef zeroext i8 @_ZNK5Yosys5RTLIL5ConstixEm(ptr noundef nonnull align 8 dereferenceable(40) %0, i64 noundef %1) #4 comdat align 2 {
  %3 = alloca ptr, align 8
  %4 = alloca i64, align 8
  %5 = alloca %"class.Yosys::RTLIL::Const::const_iterator", align 8
  store ptr %0, ptr %3, align 8, !tbaa !6
  store i64 %1, ptr %4, align 8, !tbaa !24
  %6 = load ptr, ptr %3, align 8
  call void @llvm.lifetime.start.p0(i64 16, ptr %5) #3
  %7 = load i64, ptr %4, align 8, !tbaa !24
  call void @_ZN5Yosys5RTLIL5Const14const_iteratorC2ERKS1_m(ptr noundef nonnull align 8 dereferenceable(16) %5, ptr noundef nonnull align 8 dereferenceable(40) %6, i64 noundef %7)
  %8 = call noundef zeroext i8 @_ZNK5Yosys5RTLIL5Const14const_iteratordeEv(ptr noundef nonnull align 8 dereferenceable(16) %5)
  call void @llvm.lifetime.end.p0(i64 16, ptr %5) #3
  ret i8 %8
}

; Function Attrs: mustprogress uwtable
define linkonce_odr void @_ZN11BigUnsignedC2Ev(ptr noundef nonnull align 8 dereferenceable(16) %0) unnamed_addr #4 comdat align 2 {
  %2 = alloca ptr, align 8
  store ptr %0, ptr %2, align 8, !tbaa !99
  %3 = load ptr, ptr %2, align 8
  call void @_ZN15NumberlikeArrayImEC2Ev(ptr noundef nonnull align 8 dereferenceable(16) %3)
  ret void
}

; Function Attrs: mustprogress uwtable
define internal void @_ZN5YosysL9const2bigERKNS_5RTLIL5ConstEbRi(ptr dead_on_unwind noalias writable sret(%class.BigInteger) align 8 %0, ptr noundef nonnull align 8 dereferenceable(40) %1, i1 noundef zeroext %2, ptr noundef nonnull align 4 dereferenceable(4) %3) #4 personality ptr @__gxx_personality_v0 {
  %5 = alloca ptr, align 8
  %6 = alloca ptr, align 8
  %7 = alloca i8, align 1
  %8 = alloca ptr, align 8
  %9 = alloca %class.BigUnsigned, align 8
  %10 = alloca i32, align 4
  %11 = alloca i8, align 1
  %12 = alloca i32, align 4
  %13 = alloca ptr, align 8
  %14 = alloca i32, align 4
  %15 = alloca i32, align 4
  %16 = alloca %class.BigUnsigned, align 8
  store ptr %0, ptr %5, align 8
  store ptr %1, ptr %6, align 8, !tbaa !6
  %17 = zext i1 %2 to i8
  store i8 %17, ptr %7, align 1, !tbaa !11
  store ptr %3, ptr %8, align 8, !tbaa !33
  call void @llvm.lifetime.start.p0(i64 16, ptr %9) #3
  call void @_ZN11BigUnsignedC2Ev(ptr noundef nonnull align 8 dereferenceable(16) %9)
  call void @llvm.lifetime.start.p0(i64 4, ptr %10) #3
  store i32 1, ptr %10, align 4, !tbaa !35
  call void @llvm.lifetime.start.p0(i64 1, ptr %11) #3
  store i8 1, ptr %11, align 1, !tbaa !17
  call void @llvm.lifetime.start.p0(i64 4, ptr %12) #3
  %18 = load ptr, ptr %6, align 8, !tbaa !6
  %19 = invoke noundef i32 @_ZNK5Yosys5RTLIL5Const4sizeEv(ptr noundef nonnull align 8 dereferenceable(40) %18)
          to label %20 unwind label %38

20:                                               ; preds = %4
  store i32 %19, ptr %12, align 4, !tbaa !13
  %21 = load i8, ptr %7, align 1, !tbaa !11, !range !15, !noundef !16
  %22 = trunc i8 %21 to i1
  br i1 %22, label %23, label %42

23:                                               ; preds = %20
  %24 = load i32, ptr %12, align 4, !tbaa !13
  %25 = icmp ne i32 %24, 0
  br i1 %25, label %26, label %42

26:                                               ; preds = %23
  %27 = load ptr, ptr %6, align 8, !tbaa !6
  %28 = load i32, ptr %12, align 4, !tbaa !13
  %29 = sub nsw i32 %28, 1
  %30 = sext i32 %29 to i64
  %31 = invoke noundef zeroext i8 @_ZNK5Yosys5RTLIL5ConstixEm(ptr noundef nonnull align 8 dereferenceable(40) %27, i64 noundef %30)
          to label %32 unwind label %38

32:                                               ; preds = %26
  %33 = zext i8 %31 to i32
  %34 = icmp eq i32 %33, 1
  br i1 %34, label %35, label %42

35:                                               ; preds = %32
  store i8 0, ptr %11, align 1, !tbaa !17
  store i32 -1, ptr %10, align 4, !tbaa !35
  %36 = load i32, ptr %12, align 4, !tbaa !13
  %37 = add nsw i32 %36, -1
  store i32 %37, ptr %12, align 4, !tbaa !13
  br label %42

38:                                               ; preds = %107, %26, %4
  %39 = landingpad { ptr, i32 }
          cleanup
  %40 = extractvalue { ptr, i32 } %39, 0
  store ptr %40, ptr %13, align 8
  %41 = extractvalue { ptr, i32 } %39, 1
  store i32 %41, ptr %14, align 4
  br label %110

42:                                               ; preds = %35, %32, %23, %20
  call void @llvm.lifetime.start.p0(i64 4, ptr %15) #3
  store i32 0, ptr %15, align 4, !tbaa !13
  br label %43

43:                                               ; preds = %89, %42
  %44 = load i32, ptr %15, align 4, !tbaa !13
  %45 = load i32, ptr %12, align 4, !tbaa !13
  %46 = icmp slt i32 %44, %45
  br i1 %46, label %48, label %47

47:                                               ; preds = %43
  call void @llvm.lifetime.end.p0(i64 4, ptr %15) #3
  br label %92

48:                                               ; preds = %43
  %49 = load ptr, ptr %6, align 8, !tbaa !6
  %50 = load i32, ptr %15, align 4, !tbaa !13
  %51 = sext i32 %50 to i64
  %52 = invoke noundef zeroext i8 @_ZNK5Yosys5RTLIL5ConstixEm(ptr noundef nonnull align 8 dereferenceable(40) %49, i64 noundef %51)
          to label %53 unwind label %76

53:                                               ; preds = %48
  %54 = zext i8 %52 to i32
  %55 = icmp eq i32 %54, 0
  br i1 %55, label %64, label %56

56:                                               ; preds = %53
  %57 = load ptr, ptr %6, align 8, !tbaa !6
  %58 = load i32, ptr %15, align 4, !tbaa !13
  %59 = sext i32 %58 to i64
  %60 = invoke noundef zeroext i8 @_ZNK5Yosys5RTLIL5ConstixEm(ptr noundef nonnull align 8 dereferenceable(40) %57, i64 noundef %59)
          to label %61 unwind label %76

61:                                               ; preds = %56
  %62 = zext i8 %60 to i32
  %63 = icmp eq i32 %62, 1
  br i1 %63, label %64, label %80

64:                                               ; preds = %61, %53
  %65 = load i32, ptr %15, align 4, !tbaa !13
  %66 = load ptr, ptr %6, align 8, !tbaa !6
  %67 = load i32, ptr %15, align 4, !tbaa !13
  %68 = sext i32 %67 to i64
  %69 = invoke noundef zeroext i8 @_ZNK5Yosys5RTLIL5ConstixEm(ptr noundef nonnull align 8 dereferenceable(40) %66, i64 noundef %68)
          to label %70 unwind label %76

70:                                               ; preds = %64
  %71 = zext i8 %69 to i32
  %72 = load i8, ptr %11, align 1, !tbaa !17
  %73 = zext i8 %72 to i32
  %74 = icmp eq i32 %71, %73
  invoke void @_ZN11BigUnsigned6setBitEjb(ptr noundef nonnull align 8 dereferenceable(16) %9, i32 noundef %65, i1 noundef zeroext %74)
          to label %75 unwind label %76

75:                                               ; preds = %70
  br label %88

76:                                               ; preds = %70, %64, %56, %48
  %77 = landingpad { ptr, i32 }
          cleanup
  %78 = extractvalue { ptr, i32 } %77, 0
  store ptr %78, ptr %13, align 8
  %79 = extractvalue { ptr, i32 } %77, 1
  store i32 %79, ptr %14, align 4
  call void @llvm.lifetime.end.p0(i64 4, ptr %15) #3
  br label %110

80:                                               ; preds = %61
  %81 = load ptr, ptr %8, align 8, !tbaa !33
  %82 = load i32, ptr %81, align 4, !tbaa !13
  %83 = icmp slt i32 %82, 0
  br i1 %83, label %84, label %87

84:                                               ; preds = %80
  %85 = load i32, ptr %15, align 4, !tbaa !13
  %86 = load ptr, ptr %8, align 8, !tbaa !33
  store i32 %85, ptr %86, align 4, !tbaa !13
  br label %87

87:                                               ; preds = %84, %80
  br label %88

88:                                               ; preds = %87, %75
  br label %89

89:                                               ; preds = %88
  %90 = load i32, ptr %15, align 4, !tbaa !13
  %91 = add nsw i32 %90, 1
  store i32 %91, ptr %15, align 4, !tbaa !13
  br label %43, !llvm.loop !37

92:                                               ; preds = %47
  %93 = load i32, ptr %10, align 4, !tbaa !35
  %94 = icmp eq i32 %93, -1
  br i1 %94, label %95, label %107

95:                                               ; preds = %92
  call void @llvm.lifetime.start.p0(i64 16, ptr %16) #3
  invoke void @_ZN11BigUnsignedC1Ei(ptr noundef nonnull align 8 dereferenceable(16) %16, i32 noundef 1)
          to label %96 unwind label %98

96:                                               ; preds = %95
  invoke void @_ZN11BigUnsignedpLERKS_(ptr noundef nonnull align 8 dereferenceable(16) %9, ptr noundef nonnull align 8 dereferenceable(16) %16)
          to label %97 unwind label %102

97:                                               ; preds = %96
  call void @_ZN15NumberlikeArrayImED2Ev(ptr noundef nonnull align 8 dereferenceable(16) %16) #3
  call void @llvm.lifetime.end.p0(i64 16, ptr %16) #3
  br label %107

98:                                               ; preds = %95
  %99 = landingpad { ptr, i32 }
          cleanup
  %100 = extractvalue { ptr, i32 } %99, 0
  store ptr %100, ptr %13, align 8
  %101 = extractvalue { ptr, i32 } %99, 1
  store i32 %101, ptr %14, align 4
  br label %106

102:                                              ; preds = %96
  %103 = landingpad { ptr, i32 }
          cleanup
  %104 = extractvalue { ptr, i32 } %103, 0
  store ptr %104, ptr %13, align 8
  %105 = extractvalue { ptr, i32 } %103, 1
  store i32 %105, ptr %14, align 4
  call void @_ZN15NumberlikeArrayImED2Ev(ptr noundef nonnull align 8 dereferenceable(16) %16) #3
  br label %106

106:                                              ; preds = %102, %98
  call void @llvm.lifetime.end.p0(i64 16, ptr %16) #3
  br label %110

107:                                              ; preds = %97, %92
  %108 = load i32, ptr %10, align 4, !tbaa !35
  invoke void @_ZN10BigIntegerC1ERK11BigUnsignedNS_4SignE(ptr noundef nonnull align 8 dereferenceable(24) %0, ptr noundef nonnull align 8 dereferenceable(16) %9, i32 noundef %108)
          to label %109 unwind label %38

109:                                              ; preds = %107
  call void @llvm.lifetime.end.p0(i64 4, ptr %12) #3
  call void @llvm.lifetime.end.p0(i64 1, ptr %11) #3
  call void @llvm.lifetime.end.p0(i64 4, ptr %10) #3
  call void @_ZN15NumberlikeArrayImED2Ev(ptr noundef nonnull align 8 dereferenceable(16) %9) #3
  call void @llvm.lifetime.end.p0(i64 16, ptr %9) #3
  ret void

110:                                              ; preds = %106, %76, %38
  call void @llvm.lifetime.end.p0(i64 4, ptr %12) #3
  call void @llvm.lifetime.end.p0(i64 1, ptr %11) #3
  call void @llvm.lifetime.end.p0(i64 4, ptr %10) #3
  call void @_ZN15NumberlikeArrayImED2Ev(ptr noundef nonnull align 8 dereferenceable(16) %9) #3
  call void @llvm.lifetime.end.p0(i64 16, ptr %9) #3
  br label %111

111:                                              ; preds = %110
  %112 = load ptr, ptr %13, align 8
  %113 = load i32, ptr %14, align 4
  %114 = insertvalue { ptr, i32 } poison, ptr %112, 0
  %115 = insertvalue { ptr, i32 } %114, i32 %113, 1
  resume { ptr, i32 } %115
}