; Function Attrs: mustprogress uwtable
define internal fastcc void @_ZN5YosysL9const2bigERKNS_5RTLIL5ConstEbRi(ptr dead_on_unwind noalias nonnull writable align 8 %0, ptr noundef nonnull align 8 dereferenceable(40) %1, i1 noundef zeroext %2, ptr noundef nonnull align 4 captures(none) dereferenceable(4) %3) unnamed_addr #3 personality ptr @__gxx_personality_v0 {
  %5 = alloca %"class.Yosys::RTLIL::Const::const_iterator", align 8
  %6 = alloca %"class.Yosys::RTLIL::Const::const_iterator", align 8
  %7 = alloca %"class.Yosys::RTLIL::Const::const_iterator", align 8
  %8 = alloca %"class.Yosys::RTLIL::Const::const_iterator", align 8
  %9 = alloca %class.BigUnsigned, align 8
  %10 = alloca %class.BigUnsigned, align 8
  call void @llvm.lifetime.start.p0(i64 16, ptr nonnull %9) #19
  call void @llvm.memset.p0.i64(ptr noundef nonnull align 8 dereferenceable(16) %9, i8 0, i64 16, i1 false)
  %11 = invoke noundef i32 @_ZNK5Yosys5RTLIL5Const4sizeEv(ptr noundef nonnull align 8 dereferenceable(40) %1)
          to label %12 unwind label %22

12:                                               ; preds = %4
  %13 = icmp ne i32 %11, 0
  %or.cond = and i1 %2, %13
  br i1 %or.cond, label %14, label %24

14:                                               ; preds = %12
  %15 = add nsw i32 %11, -1
  %16 = sext i32 %15 to i64
  call void @llvm.lifetime.start.p0(i64 16, ptr nonnull %8) #19
  store ptr %1, ptr %8, align 8, !tbaa !20
  %17 = getelementptr inbounds nuw i8, ptr %8, i64 8
  store i64 %16, ptr %17, align 8, !tbaa !22
  %18 = invoke noundef zeroext i8 @_ZNK5Yosys5RTLIL5Const14const_iteratordeEv(ptr noundef nonnull align 8 dereferenceable(16) %8)
          to label %19 unwind label %22

19:                                               ; preds = %14
  call void @llvm.lifetime.end.p0(i64 16, ptr nonnull %8) #19
  %20 = icmp eq i8 %18, 1
  br i1 %20, label %21, label %24

21:                                               ; preds = %19
  br label %24

22:                                               ; preds = %14, %66, %4
  %23 = landingpad { ptr, i32 }
          cleanup
  br label %72

24:                                               ; preds = %21, %19, %12
  %25 = phi i1 [ true, %21 ], [ false, %19 ], [ false, %12 ]
  %.029 = phi i32 [ -1, %21 ], [ 1, %19 ], [ 1, %12 ]
  %.028 = phi i32 [ 0, %21 ], [ 1, %19 ], [ 1, %12 ]
  %.027 = phi i32 [ %15, %21 ], [ %11, %19 ], [ %11, %12 ]
  %26 = icmp sgt i32 %.027, 0
  br i1 %26, label %.lr.ph, label %._crit_edge

.lr.ph:                                           ; preds = %24
  %27 = getelementptr inbounds nuw i8, ptr %7, i64 8
  %28 = getelementptr inbounds nuw i8, ptr %6, i64 8
  %29 = getelementptr inbounds nuw i8, ptr %5, i64 8
  %wide.trip.count = zext nneg i32 %.027 to i64
  br label %30

._crit_edge:                                      ; preds = %51, %24
  br i1 %25, label %52, label %66

30:                                               ; preds = %.lr.ph, %51
  %indvars.iv = phi i64 [ 0, %.lr.ph ], [ %indvars.iv.next, %51 ]
  call void @llvm.lifetime.start.p0(i64 16, ptr nonnull %7) #19
  store ptr %1, ptr %7, align 8, !tbaa !20
  store i64 %indvars.iv, ptr %27, align 8, !tbaa !22
  %31 = invoke noundef zeroext i8 @_ZNK5Yosys5RTLIL5Const14const_iteratordeEv(ptr noundef nonnull align 8 dereferenceable(16) %7)
          to label %32 unwind label %44

32:                                               ; preds = %30
  call void @llvm.lifetime.end.p0(i64 16, ptr nonnull %7) #19
  %33 = icmp eq i8 %31, 0
  br i1 %33, label %38, label %34

34:                                               ; preds = %32
  call void @llvm.lifetime.start.p0(i64 16, ptr nonnull %6) #19
  store ptr %1, ptr %6, align 8, !tbaa !20
  store i64 %indvars.iv, ptr %28, align 8, !tbaa !22
  %35 = invoke noundef zeroext i8 @_ZNK5Yosys5RTLIL5Const14const_iteratordeEv(ptr noundef nonnull align 8 dereferenceable(16) %6)
          to label %36 unwind label %44

36:                                               ; preds = %34
  call void @llvm.lifetime.end.p0(i64 16, ptr nonnull %6) #19
  %37 = icmp eq i8 %35, 1
  br i1 %37, label %38, label %46

38:                                               ; preds = %36, %32
  call void @llvm.lifetime.start.p0(i64 16, ptr nonnull %5) #19
  store ptr %1, ptr %5, align 8, !tbaa !20
  store i64 %indvars.iv, ptr %29, align 8, !tbaa !22
  %39 = invoke noundef zeroext i8 @_ZNK5Yosys5RTLIL5Const14const_iteratordeEv(ptr noundef nonnull align 8 dereferenceable(16) %5)
          to label %40 unwind label %44

40:                                               ; preds = %38
  call void @llvm.lifetime.end.p0(i64 16, ptr nonnull %5) #19
  %41 = zext i8 %39 to i32
  %42 = icmp eq i32 %.028, %41
  %43 = trunc nuw nsw i64 %indvars.iv to i32
  invoke void @_ZN11BigUnsigned6setBitEjb(ptr noundef nonnull align 8 dereferenceable(16) %9, i32 noundef %43, i1 noundef zeroext %42)
          to label %51 unwind label %44

44:                                               ; preds = %38, %34, %30, %40
  %45 = landingpad { ptr, i32 }
          cleanup
  br label %72

46:                                               ; preds = %36
  %47 = load i32, ptr %3, align 4, !tbaa !29
  %48 = icmp slt i32 %47, 0
  br i1 %48, label %49, label %51

49:                                               ; preds = %46
  %50 = trunc nuw nsw i64 %indvars.iv to i32
  store i32 %50, ptr %3, align 4, !tbaa !29
  br label %51

51:                                               ; preds = %40, %49, %46
  %indvars.iv.next = add nuw nsw i64 %indvars.iv, 1
  %exitcond.not = icmp eq i64 %indvars.iv.next, %wide.trip.count
  br i1 %exitcond.not, label %._crit_edge, label %30, !llvm.loop !39

52:                                               ; preds = %._crit_edge
  call void @llvm.lifetime.start.p0(i64 16, ptr nonnull %10) #19
  invoke void @_ZN11BigUnsignedC1Ei(ptr noundef nonnull align 8 dereferenceable(16) %10, i32 noundef 1)
          to label %53 unwind label %58

53:                                               ; preds = %52
  invoke void @_ZN11BigUnsigned3addERKS_S1_(ptr noundef nonnull align 8 dereferenceable(16) %9, ptr noundef nonnull align 8 dereferenceable(16) %9, ptr noundef nonnull align 8 dereferenceable(16) %10)
          to label %_ZN11BigUnsignedpLERKS_.exit unwind label %60

_ZN11BigUnsignedpLERKS_.exit:                     ; preds = %53
  %54 = getelementptr inbounds nuw i8, ptr %10, i64 8
  %55 = load ptr, ptr %54, align 8, !tbaa !38
  %56 = icmp eq ptr %55, null
  br i1 %56, label %_ZN15NumberlikeArrayImED2Ev.exit, label %57

57:                                               ; preds = %_ZN11BigUnsignedpLERKS_.exit
  call void @_ZdaPv(ptr noundef nonnull %55) #22
  br label %_ZN15NumberlikeArrayImED2Ev.exit

_ZN15NumberlikeArrayImED2Ev.exit:                 ; preds = %_ZN11BigUnsignedpLERKS_.exit, %57
  call void @llvm.lifetime.end.p0(i64 16, ptr nonnull %10) #19
  br label %66

58:                                               ; preds = %52
  %59 = landingpad { ptr, i32 }
          cleanup
  br label %_ZN15NumberlikeArrayImED2Ev.exit37

60:                                               ; preds = %53
  %61 = landingpad { ptr, i32 }
          cleanup
  %62 = getelementptr inbounds nuw i8, ptr %10, i64 8
  %63 = load ptr, ptr %62, align 8, !tbaa !38
  %64 = icmp eq ptr %63, null
  br i1 %64, label %_ZN15NumberlikeArrayImED2Ev.exit37, label %65

65:                                               ; preds = %60
  call void @_ZdaPv(ptr noundef nonnull %63) #22
  br label %_ZN15NumberlikeArrayImED2Ev.exit37

_ZN15NumberlikeArrayImED2Ev.exit37:               ; preds = %65, %60, %58
  %.pn = phi { ptr, i32 } [ %59, %58 ], [ %61, %60 ], [ %61, %65 ]
  call void @llvm.lifetime.end.p0(i64 16, ptr nonnull %10) #19
  br label %72

66:                                               ; preds = %_ZN15NumberlikeArrayImED2Ev.exit, %._crit_edge
  invoke void @_ZN10BigIntegerC1ERK11BigUnsignedNS_4SignE(ptr noundef nonnull align 8 dereferenceable(24) %0, ptr noundef nonnull align 8 dereferenceable(16) %9, i32 noundef %.029)
          to label %67 unwind label %22

67:                                               ; preds = %66
  %68 = getelementptr inbounds nuw i8, ptr %9, i64 8
  %69 = load ptr, ptr %68, align 8, !tbaa !38
  %70 = icmp eq ptr %69, null
  br i1 %70, label %_ZN15NumberlikeArrayImED2Ev.exit38, label %71

71:                                               ; preds = %67
  call void @_ZdaPv(ptr noundef nonnull %69) #22
  br label %_ZN15NumberlikeArrayImED2Ev.exit38

_ZN15NumberlikeArrayImED2Ev.exit38:               ; preds = %67, %71
  call void @llvm.lifetime.end.p0(i64 16, ptr nonnull %9) #19
  ret void

72:                                               ; preds = %_ZN15NumberlikeArrayImED2Ev.exit37, %44, %22
  %.pn32 = phi { ptr, i32 } [ %45, %44 ], [ %23, %22 ], [ %.pn, %_ZN15NumberlikeArrayImED2Ev.exit37 ]
  %73 = getelementptr inbounds nuw i8, ptr %9, i64 8
  %74 = load ptr, ptr %73, align 8, !tbaa !38
  %75 = icmp eq ptr %74, null
  br i1 %75, label %_ZN15NumberlikeArrayImED2Ev.exit39, label %76

76:                                               ; preds = %72
  call void @_ZdaPv(ptr noundef nonnull %74) #22
  br label %_ZN15NumberlikeArrayImED2Ev.exit39

_ZN15NumberlikeArrayImED2Ev.exit39:               ; preds = %72, %76
  call void @llvm.lifetime.end.p0(i64 16, ptr nonnull %9) #19
  resume { ptr, i32 } %.pn32
}